(dp0
S'\x83'
p1
I71
sS'\x93'
p2
I78
sS'\x9f'
p3
I82
sS' '
p4
I1
sS'$'
p5
I5
sS'('
p6
I9
sS','
p7
I13
sS'\xaf'
p8
I86
sS'0'
p9
I17
sS'4'
p10
I21
sS'\xb7'
p11
I88
sS'8'
p12
I25
sS'\xbb'
p13
I89
sS'<'
p14
I29
sS'\xbf'
p15
I90
sS'@'
p16
I33
sS'\xc3'
p17
I92
sS'\\'
p18
I35
sS'\xe3'
p19
I94
sS'd'
p20
I42
sS'h'
p21
I46
sS'l'
p22
I50
sS'\xef'
p23
I95
sS'p'
p24
I54
sS't'
p25
I58
sS'x'
p26
I62
sS'|'
p27
I66
sS'\x80'
p28
I69
sS'\x84'
p29
I72
sS'\x88'
p30
I73
sS'\x8c'
p31
I74
sS'\x90'
p32
I76
sS'\x98'
p33
I80
sS'#'
p34
I4
sS"'"
p35
I8
sS'+'
p36
I12
sS'\xac'
p37
I85
sS'/'
p38
I16
sS'3'
p39
I20
sS'7'
p40
I24
sS';'
p41
I28
sS'?'
p42
I32
sS'['
p43
I34
sS'_'
p44
I38
sS'c'
p45
I41
sS'g'
p46
I45
sS'k'
p47
I49
sS'o'
p48
I53
sS'\xf0'
p49
I96
sS's'
p50
I57
sS'w'
p51
I61
sS'{'
p52
I65
sS'\n'
p53
I0
sS'\x8d'
p54
I75
sS'\x91'
p55
I77
sS'\x99'
p56
I81
sS'"'
p57
I3
sS'\xa5'
p58
I83
sS'&'
p59
I7
sS'\xa9'
p60
I84
sS'*'
p61
I11
sS'.'
p62
I15
sS'\xb1'
p63
I87
sS'2'
p64
I19
sS'6'
p65
I23
sS':'
p66
I27
sS'>'
p67
I31
sS'^'
p68
I37
sS'b'
p69
I40
sS'f'
p70
I44
sS'j'
p71
I48
sS'n'
p72
I52
sS'r'
p73
I56
sS'v'
p74
I60
sS'z'
p75
I64
sS'~'
p76
I68
sS'\x82'
p77
I70
sS'\x96'
p78
I79
sS'!'
p79
I2
sS'%'
p80
I6
sS')'
p81
I10
sS'-'
p82
I14
sS'1'
p83
I18
sS'5'
p84
I22
sS'9'
p85
I26
sS'='
p86
I30
sS'\xc2'
p87
I91
sS']'
p88
I36
sS'a'
p89
I39
sS'\xe2'
p90
I93
sS'e'
p91
I43
sS'i'
p92
I47
sS'm'
p93
I51
sS'q'
p94
I55
sS'u'
p95
I59
sS'y'
p96
I63
sS'}'
p97
I67
s.